target datalayout = "e-m:e-p270:32:32-p271:32:32-p272:64:64-i64:64-i128:128-f80:128-n8:16:32:64-S128"
target triple = "x86_64-pc-linux-gnu"

%struct.GetByteContext = type { ptr, ptr, ptr }

@.str.17 = private unnamed_addr constant [40 x i8] c"decode_byterun ended before plane size\0A\00", align 1

; Function Attrs: alwaysinline nounwind uwtable
define internal i32 @bytestream_get_byte(ptr noundef %0) #5 {
  %2 = alloca ptr, align 8
  store ptr %0, ptr %2, align 8, !tbaa !124
  %3 = load ptr, ptr %2, align 8, !tbaa !124
  %4 = load ptr, ptr %3, align 8, !tbaa !45
  %5 = getelementptr inbounds i8, ptr %4, i64 1
  store ptr %5, ptr %3, align 8, !tbaa !45
  %6 = load ptr, ptr %2, align 8, !tbaa !124
  %7 = load ptr, ptr %6, align 8, !tbaa !45
  %8 = getelementptr inbounds i8, ptr %7, i64 -1
  %9 = getelementptr inbounds i8, ptr %8, i64 0
  %10 = load i8, ptr %9, align 1, !tbaa !34
  %11 = zext i8 %10 to i32
  ret i32 %11
}

; Function Attrs: alwaysinline nounwind uwtable
define internal i32 @bytestream2_get_byteu(ptr noundef %0) #5 {
  %2 = alloca ptr, align 8
  store ptr %0, ptr %2, align 8, !tbaa !55
  %3 = load ptr, ptr %2, align 8, !tbaa !55
  %4 = getelementptr inbounds nuw %struct.GetByteContext, ptr %3, i32 0, i32 0
  %5 = call i32 @bytestream_get_byte(ptr noundef %4)
  ret i32 %5
}

; Function Attrs: alwaysinline nounwind uwtable
define internal i32 @bytestream2_tell(ptr noundef %0) #5 {
  %2 = alloca ptr, align 8
  store ptr %0, ptr %2, align 8, !tbaa !55
  %3 = load ptr, ptr %2, align 8, !tbaa !55
  %4 = getelementptr inbounds nuw %struct.GetByteContext, ptr %3, i32 0, i32 0
  %5 = load ptr, ptr %4, align 8, !tbaa !125
  %6 = load ptr, ptr %2, align 8, !tbaa !55
  %7 = getelementptr inbounds nuw %struct.GetByteContext, ptr %6, i32 0, i32 2
  %8 = load ptr, ptr %7, align 8, !tbaa !127
  %9 = ptrtoint ptr %5 to i64
  %10 = ptrtoint ptr %8 to i64
  %11 = sub i64 %9, %10
  %12 = trunc i64 %11 to i32
  ret i32 %12
}

; Function Attrs: alwaysinline nounwind uwtable
define internal void @bytestream2_skip(ptr noundef %0, i32 noundef %1) #5 {
  %3 = alloca ptr, align 8
  %4 = alloca i32, align 4
  store ptr %0, ptr %3, align 8, !tbaa !55
  store i32 %1, ptr %4, align 4, !tbaa !35
  %5 = load ptr, ptr %3, align 8, !tbaa !55
  %6 = getelementptr inbounds nuw %struct.GetByteContext, ptr %5, i32 0, i32 1
  %7 = load ptr, ptr %6, align 8, !tbaa !128
  %8 = load ptr, ptr %3, align 8, !tbaa !55
  %9 = getelementptr inbounds nuw %struct.GetByteContext, ptr %8, i32 0, i32 0
  %10 = load ptr, ptr %9, align 8, !tbaa !125
  %11 = ptrtoint ptr %7 to i64
  %12 = ptrtoint ptr %10 to i64
  %13 = sub i64 %11, %12
  %14 = load i32, ptr %4, align 4, !tbaa !35
  %15 = zext i32 %14 to i64
  %16 = icmp sgt i64 %13, %15
  br i1 %16, label %17, label %20

17:                                               ; preds = %2
  %18 = load i32, ptr %4, align 4, !tbaa !35
  %19 = zext i32 %18 to i64
  br label %30

20:                                               ; preds = %2
  %21 = load ptr, ptr %3, align 8, !tbaa !55
  %22 = getelementptr inbounds nuw %struct.GetByteContext, ptr %21, i32 0, i32 1
  %23 = load ptr, ptr %22, align 8, !tbaa !128
  %24 = load ptr, ptr %3, align 8, !tbaa !55
  %25 = getelementptr inbounds nuw %struct.GetByteContext, ptr %24, i32 0, i32 0
  %26 = load ptr, ptr %25, align 8, !tbaa !125
  %27 = ptrtoint ptr %23 to i64
  %28 = ptrtoint ptr %26 to i64
  %29 = sub i64 %27, %28
  br label %30

30:                                               ; preds = %20, %17
  %31 = phi i64 [ %19, %17 ], [ %29, %20 ]
  %32 = load ptr, ptr %3, align 8, !tbaa !55
  %33 = getelementptr inbounds nuw %struct.GetByteContext, ptr %32, i32 0, i32 0
  %34 = load ptr, ptr %33, align 8, !tbaa !125
  %35 = getelementptr inbounds i8, ptr %34, i64 %31
  store ptr %35, ptr %33, align 8, !tbaa !125
  ret void
}

; Function Attrs: alwaysinline nounwind uwtable
define internal i32 @bytestream2_get_buffer(ptr noundef %0, ptr noundef %1, i32 noundef %2) #5 {
  %4 = alloca ptr, align 8
  %5 = alloca ptr, align 8
  %6 = alloca i32, align 4
  %7 = alloca i32, align 4
  store ptr %0, ptr %4, align 8, !tbaa !55
  store ptr %1, ptr %5, align 8, !tbaa !45
  store i32 %2, ptr %6, align 4, !tbaa !35
  call void @llvm.lifetime.start.p0(i64 4, ptr %7) #9
  %8 = load ptr, ptr %4, align 8, !tbaa !55
  %9 = getelementptr inbounds nuw %struct.GetByteContext, ptr %8, i32 0, i32 1
  %10 = load ptr, ptr %9, align 8, !tbaa !128
  %11 = load ptr, ptr %4, align 8, !tbaa !55
  %12 = getelementptr inbounds nuw %struct.GetByteContext, ptr %11, i32 0, i32 0
  %13 = load ptr, ptr %12, align 8, !tbaa !125
  %14 = ptrtoint ptr %10 to i64
  %15 = ptrtoint ptr %13 to i64
  %16 = sub i64 %14, %15
  %17 = load i32, ptr %6, align 4, !tbaa !35
  %18 = zext i32 %17 to i64
  %19 = icmp sgt i64 %16, %18
  br i1 %19, label %20, label %23

20:                                               ; preds = %3
  %21 = load i32, ptr %6, align 4, !tbaa !35
  %22 = zext i32 %21 to i64
  br label %33

23:                                               ; preds = %3
  %24 = load ptr, ptr %4, align 8, !tbaa !55
  %25 = getelementptr inbounds nuw %struct.GetByteContext, ptr %24, i32 0, i32 1
  %26 = load ptr, ptr %25, align 8, !tbaa !128
  %27 = load ptr, ptr %4, align 8, !tbaa !55
  %28 = getelementptr inbounds nuw %struct.GetByteContext, ptr %27, i32 0, i32 0
  %29 = load ptr, ptr %28, align 8, !tbaa !125
  %30 = ptrtoint ptr %26 to i64
  %31 = ptrtoint ptr %29 to i64
  %32 = sub i64 %30, %31
  br label %33

33:                                               ; preds = %23, %20
  %34 = phi i64 [ %22, %20 ], [ %32, %23 ]
  %35 = trunc i64 %34 to i32
  store i32 %35, ptr %7, align 4, !tbaa !35
  %36 = load ptr, ptr %5, align 8, !tbaa !45
  %37 = load ptr, ptr %4, align 8, !tbaa !55
  %38 = getelementptr inbounds nuw %struct.GetByteContext, ptr %37, i32 0, i32 0
  %39 = load ptr, ptr %38, align 8, !tbaa !125
  %40 = load i32, ptr %7, align 4, !tbaa !35
  %41 = zext i32 %40 to i64
  call void @llvm.memcpy.p0.p0.i64(ptr align 1 %36, ptr align 1 %39, i64 %41, i1 false)
  %42 = load i32, ptr %7, align 4, !tbaa !35
  %43 = load ptr, ptr %4, align 8, !tbaa !55
  %44 = getelementptr inbounds nuw %struct.GetByteContext, ptr %43, i32 0, i32 0
  %45 = load ptr, ptr %44, align 8, !tbaa !125
  %46 = zext i32 %42 to i64
  %47 = getelementptr inbounds nuw i8, ptr %45, i64 %46
  store ptr %47, ptr %44, align 8, !tbaa !125
  %48 = load i32, ptr %7, align 4, !tbaa !35
  call void @llvm.lifetime.end.p0(i64 4, ptr %7) #9
  ret i32 %48
}

; Function Attrs: alwaysinline nounwind uwtable
define internal i32 @bytestream2_get_byte(ptr noundef %0) #5 {
  %2 = alloca i32, align 4
  %3 = alloca ptr, align 8
  store ptr %0, ptr %3, align 8, !tbaa !55
  %4 = load ptr, ptr %3, align 8, !tbaa !55
  %5 = getelementptr inbounds nuw %struct.GetByteContext, ptr %4, i32 0, i32 1
  %6 = load ptr, ptr %5, align 8, !tbaa !128
  %7 = load ptr, ptr %3, align 8, !tbaa !55
  %8 = getelementptr inbounds nuw %struct.GetByteContext, ptr %7, i32 0, i32 0
  %9 = load ptr, ptr %8, align 8, !tbaa !125
  %10 = ptrtoint ptr %6 to i64
  %11 = ptrtoint ptr %9 to i64
  %12 = sub i64 %10, %11
  %13 = icmp slt i64 %12, 1
  br i1 %13, label %14, label %20

14:                                               ; preds = %1
  %15 = load ptr, ptr %3, align 8, !tbaa !55
  %16 = getelementptr inbounds nuw %struct.GetByteContext, ptr %15, i32 0, i32 1
  %17 = load ptr, ptr %16, align 8, !tbaa !128
  %18 = load ptr, ptr %3, align 8, !tbaa !55
  %19 = getelementptr inbounds nuw %struct.GetByteContext, ptr %18, i32 0, i32 0
  store ptr %17, ptr %19, align 8, !tbaa !125
  store i32 0, ptr %2, align 4
  br label %23

20:                                               ; preds = %1
  %21 = load ptr, ptr %3, align 8, !tbaa !55
  %22 = call i32 @bytestream2_get_byteu(ptr noundef %21)
  store i32 %22, ptr %2, align 4
  br label %23

23:                                               ; preds = %20, %14
  %24 = load i32, ptr %2, align 4
  ret i32 %24
}

; Function Attrs: alwaysinline nounwind uwtable
define internal i32 @bytestream2_get_bytes_left(ptr noundef %0) #5 {
  %2 = alloca ptr, align 8
  store ptr %0, ptr %2, align 8, !tbaa !55
  %3 = load ptr, ptr %2, align 8, !tbaa !55
  %4 = getelementptr inbounds nuw %struct.GetByteContext, ptr %3, i32 0, i32 1
  %5 = load ptr, ptr %4, align 8, !tbaa !128
  %6 = load ptr, ptr %2, align 8, !tbaa !55
  %7 = getelementptr inbounds nuw %struct.GetByteContext, ptr %6, i32 0, i32 0
  %8 = load ptr, ptr %7, align 8, !tbaa !125
  %9 = ptrtoint ptr %5 to i64
  %10 = ptrtoint ptr %8 to i64
  %11 = sub i64 %9, %10
  %12 = trunc i64 %11 to i32
  ret i32 %12
}

; Function Attrs: nounwind uwtable
define internal i32 @decode_byterun(ptr noundef %0, i32 noundef %1, ptr noundef %2) #1 {
  %4 = alloca ptr, align 8
  %5 = alloca i32, align 4
  %6 = alloca ptr, align 8
  %7 = alloca i32, align 4
  %8 = alloca i32, align 4
  %9 = alloca i8, align 1
  %10 = alloca i32, align 4
  store ptr %0, ptr %4, align 8, !tbaa !45
  store i32 %1, ptr %5, align 4, !tbaa !35
  store ptr %2, ptr %6, align 8, !tbaa !55
  call void @llvm.lifetime.start.p0(i64 4, ptr %7) #9
  store i32 0, ptr %7, align 4, !tbaa !35
  br label %11

11:                                               ; preds = %133, %131, %3
  %12 = load i32, ptr %7, align 4, !tbaa !35
  %13 = load i32, ptr %5, align 4, !tbaa !35
  %14 = icmp ult i32 %12, %13
  br i1 %14, label %15, label %19

15:                                               ; preds = %11
  %16 = load ptr, ptr %6, align 8, !tbaa !55
  %17 = call i32 @bytestream2_get_bytes_left(ptr noundef %16)
  %18 = icmp sgt i32 %17, 0
  br label %19

19:                                               ; preds = %15, %11
  %20 = phi i1 [ false, %11 ], [ %18, %15 ]
  br i1 %20, label %21, label %134

21:                                               ; preds = %19
  call void @llvm.lifetime.start.p0(i64 4, ptr %8) #9
  call void @llvm.lifetime.start.p0(i64 1, ptr %9) #9
  %22 = load ptr, ptr %6, align 8, !tbaa !55
  %23 = call i32 @bytestream2_get_byte(ptr noundef %22)
  %24 = trunc i32 %23 to i8
  store i8 %24, ptr %9, align 1, !tbaa !34
  %25 = load i8, ptr %9, align 1, !tbaa !34
  %26 = sext i8 %25 to i32
  %27 = icmp sge i32 %26, 0
  br i1 %27, label %28, label %92

28:                                               ; preds = %21
  %29 = load i8, ptr %9, align 1, !tbaa !34
  %30 = sext i8 %29 to i32
  %31 = add nsw i32 %30, 1
  %32 = load i32, ptr %5, align 4, !tbaa !35
  %33 = load i32, ptr %7, align 4, !tbaa !35
  %34 = sub i32 %32, %33
  %35 = icmp ugt i32 %31, %34
  br i1 %35, label %36, label %40

36:                                               ; preds = %28
  %37 = load i32, ptr %5, align 4, !tbaa !35
  %38 = load i32, ptr %7, align 4, !tbaa !35
  %39 = sub i32 %37, %38
  br label %44

40:                                               ; preds = %28
  %41 = load i8, ptr %9, align 1, !tbaa !34
  %42 = sext i8 %41 to i32
  %43 = add nsw i32 %42, 1
  br label %44

44:                                               ; preds = %40, %36
  %45 = phi i32 [ %39, %36 ], [ %43, %40 ]
  %46 = load ptr, ptr %6, align 8, !tbaa !55
  %47 = call i32 @bytestream2_get_bytes_left(ptr noundef %46)
  %48 = icmp ugt i32 %45, %47
  br i1 %48, label %49, label %52

49:                                               ; preds = %44
  %50 = load ptr, ptr %6, align 8, !tbaa !55
  %51 = call i32 @bytestream2_get_bytes_left(ptr noundef %50)
  br label %70

52:                                               ; preds = %44
  %53 = load i8, ptr %9, align 1, !tbaa !34
  %54 = sext i8 %53 to i32
  %55 = add nsw i32 %54, 1
  %56 = load i32, ptr %5, align 4, !tbaa !35
  %57 = load i32, ptr %7, align 4, !tbaa !35
  %58 = sub i32 %56, %57
  %59 = icmp ugt i32 %55, %58
  br i1 %59, label %60, label %64

60:                                               ; preds = %52
  %61 = load i32, ptr %5, align 4, !tbaa !35
  %62 = load i32, ptr %7, align 4, !tbaa !35
  %63 = sub i32 %61, %62
  br label %68

64:                                               ; preds = %52
  %65 = load i8, ptr %9, align 1, !tbaa !34
  %66 = sext i8 %65 to i32
  %67 = add nsw i32 %66, 1
  br label %68

68:                                               ; preds = %64, %60
  %69 = phi i32 [ %63, %60 ], [ %67, %64 ]
  br label %70

70:                                               ; preds = %68, %49
  %71 = phi i32 [ %51, %49 ], [ %69, %68 ]
  store i32 %71, ptr %8, align 4, !tbaa !35
  %72 = load ptr, ptr %6, align 8, !tbaa !55
  %73 = load ptr, ptr %4, align 8, !tbaa !45
  %74 = load i32, ptr %7, align 4, !tbaa !35
  %75 = zext i32 %74 to i64
  %76 = getelementptr inbounds nuw i8, ptr %73, i64 %75
  %77 = load i32, ptr %8, align 4, !tbaa !35
  %78 = call i32 @bytestream2_get_buffer(ptr noundef %72, ptr noundef %76, i32 noundef %77)
  %79 = load i32, ptr %8, align 4, !tbaa !35
  %80 = load i8, ptr %9, align 1, !tbaa !34
  %81 = sext i8 %80 to i32
  %82 = add nsw i32 %81, 1
  %83 = icmp ult i32 %79, %82
  br i1 %83, label %84, label %91

84:                                               ; preds = %70
  %85 = load ptr, ptr %6, align 8, !tbaa !55
  %86 = load i8, ptr %9, align 1, !tbaa !34
  %87 = sext i8 %86 to i32
  %88 = add nsw i32 %87, 1
  %89 = load i32, ptr %8, align 4, !tbaa !35
  %90 = sub i32 %88, %89
  call void @bytestream2_skip(ptr noundef %85, i32 noundef %90)
  br label %91

91:                                               ; preds = %84, %70
  br label %127

92:                                               ; preds = %21
  %93 = load i8, ptr %9, align 1, !tbaa !34
  %94 = sext i8 %93 to i32
  %95 = icmp sgt i32 %94, -128
  br i1 %95, label %96, label %125

96:                                               ; preds = %92
  %97 = load i8, ptr %9, align 1, !tbaa !34
  %98 = sext i8 %97 to i32
  %99 = sub nsw i32 0, %98
  %100 = add nsw i32 %99, 1
  %101 = load i32, ptr %5, align 4, !tbaa !35
  %102 = load i32, ptr %7, align 4, !tbaa !35
  %103 = sub i32 %101, %102
  %104 = icmp ugt i32 %100, %103
  br i1 %104, label %105, label %109

105:                                              ; preds = %96
  %106 = load i32, ptr %5, align 4, !tbaa !35
  %107 = load i32, ptr %7, align 4, !tbaa !35
  %108 = sub i32 %106, %107
  br label %114

109:                                              ; preds = %96
  %110 = load i8, ptr %9, align 1, !tbaa !34
  %111 = sext i8 %110 to i32
  %112 = sub nsw i32 0, %111
  %113 = add nsw i32 %112, 1
  br label %114

114:                                              ; preds = %109, %105
  %115 = phi i32 [ %108, %105 ], [ %113, %109 ]
  store i32 %115, ptr %8, align 4, !tbaa !35
  %116 = load ptr, ptr %4, align 8, !tbaa !45
  %117 = load i32, ptr %7, align 4, !tbaa !35
  %118 = zext i32 %117 to i64
  %119 = getelementptr inbounds nuw i8, ptr %116, i64 %118
  %120 = load ptr, ptr %6, align 8, !tbaa !55
  %121 = call i32 @bytestream2_get_byte(ptr noundef %120)
  %122 = trunc i32 %121 to i8
  %123 = load i32, ptr %8, align 4, !tbaa !35
  %124 = zext i32 %123 to i64
  call void @llvm.memset.p0.i64(ptr align 1 %119, i8 %122, i64 %124, i1 false)
  br label %126

125:                                              ; preds = %92
  store i32 3, ptr %10, align 4
  br label %131, !llvm.loop !142

126:                                              ; preds = %114
  br label %127

127:                                              ; preds = %126, %91
  %128 = load i32, ptr %8, align 4, !tbaa !35
  %129 = load i32, ptr %7, align 4, !tbaa !35
  %130 = add i32 %129, %128
  store i32 %130, ptr %7, align 4, !tbaa !35
  store i32 0, ptr %10, align 4
  br label %131

131:                                              ; preds = %127, %125
  call void @llvm.lifetime.end.p0(i64 1, ptr %9) #9
  call void @llvm.lifetime.end.p0(i64 4, ptr %8) #9
  %132 = load i32, ptr %10, align 4
  switch i32 %132, label %150 [
    i32 0, label %133
    i32 3, label %11
  ]

133:                                              ; preds = %131
  br label %11, !llvm.loop !142

134:                                              ; preds = %19
  %135 = load i32, ptr %7, align 4, !tbaa !35
  %136 = load i32, ptr %5, align 4, !tbaa !35
  %137 = icmp ult i32 %135, %136
  br i1 %137, label %138, label %147

138:                                              ; preds = %134
  call void (ptr, i32, ptr, ...) @av_log(ptr noundef null, i32 noundef 24, ptr noundef @.str.17)
  %139 = load ptr, ptr %4, align 8, !tbaa !45
  %140 = load i32, ptr %7, align 4, !tbaa !35
  %141 = zext i32 %140 to i64
  %142 = getelementptr inbounds nuw i8, ptr %139, i64 %141
  %143 = load i32, ptr %5, align 4, !tbaa !35
  %144 = load i32, ptr %7, align 4, !tbaa !35
  %145 = sub i32 %143, %144
  %146 = zext i32 %145 to i64
  call void @llvm.memset.p0.i64(ptr align 1 %142, i8 0, i64 %146, i1 false)
  br label %147

147:                                              ; preds = %138, %134
  %148 = load ptr, ptr %6, align 8, !tbaa !55
  %149 = call i32 @bytestream2_tell(ptr noundef %148)
  store i32 1, ptr %10, align 4
  call void @llvm.lifetime.end.p0(i64 4, ptr %7) #9
  ret i32 %149

150:                                              ; preds = %131
  unreachable
}