; Function Attrs: nounwind uwtable
define internal fastcc void @decode_byterun(ptr noundef writeonly captures(none) %0, i32 noundef %1, ptr noundef nonnull captures(none) %2) unnamed_addr #1 {
  %.not71 = icmp eq i32 %1, 0
  br i1 %.not71, label %.critedge63, label %.lr.ph

.lr.ph:                                           ; preds = %3
  %4 = getelementptr inbounds nuw i8, ptr %2, i64 8
  br label %5

5:                                                ; preds = %.lr.ph, %57
  %.070 = phi i32 [ 0, %.lr.ph ], [ %.1, %57 ]
  %6 = load ptr, ptr %4, align 8, !tbaa !66
  %7 = load ptr, ptr %2, align 8, !tbaa !63
  %8 = ptrtoint ptr %6 to i64
  %9 = ptrtoint ptr %7 to i64
  %10 = sub i64 %8, %9
  %11 = trunc i64 %10 to i32
  %12 = icmp sgt i32 %11, 0
  br i1 %12, label %13, label %.critedge

13:                                               ; preds = %5
  %14 = icmp slt i64 %10, 1
  br i1 %14, label %bytestream2_get_byte.exit.thread, label %bytestream2_get_byte.exit

bytestream2_get_byte.exit.thread:                 ; preds = %13
  store ptr %6, ptr %2, align 8, !tbaa !63
  br label %19

bytestream2_get_byte.exit:                        ; preds = %13
  %15 = getelementptr inbounds nuw i8, ptr %7, i64 1
  store ptr %15, ptr %2, align 8, !tbaa !40
  %16 = load i8, ptr %7, align 1, !tbaa !30
  %17 = sext i8 %16 to i32
  %18 = icmp sgt i8 %16, -1
  br i1 %18, label %bytestream2_get_byte.exit._crit_edge, label %41

bytestream2_get_byte.exit._crit_edge:             ; preds = %bytestream2_get_byte.exit
  %.pre = ptrtoint ptr %15 to i64
  br label %19

19:                                               ; preds = %bytestream2_get_byte.exit._crit_edge, %bytestream2_get_byte.exit.thread
  %.pre-phi = phi i64 [ %.pre, %bytestream2_get_byte.exit._crit_edge ], [ %8, %bytestream2_get_byte.exit.thread ]
  %20 = phi ptr [ %15, %bytestream2_get_byte.exit._crit_edge ], [ %6, %bytestream2_get_byte.exit.thread ]
  %21 = phi i32 [ %17, %bytestream2_get_byte.exit._crit_edge ], [ 0, %bytestream2_get_byte.exit.thread ]
  %22 = add nuw nsw i32 %21, 1
  %23 = sub i32 %1, %.070
  %.not = icmp ult i32 %21, %23
  %. = select i1 %.not, i32 %22, i32 %23
  %24 = sub i64 %8, %.pre-phi
  %25 = trunc i64 %24 to i32
  %spec.select = tail call i32 @llvm.umin.i32(i32 %., i32 %25)
  %26 = zext i32 %.070 to i64
  %27 = getelementptr inbounds nuw i8, ptr %0, i64 %26
  %28 = zext i32 %spec.select to i64
  %29 = tail call i64 @llvm.smin.i64(i64 %24, i64 %28)
  %30 = and i64 %29, 4294967295
  tail call void @llvm.memcpy.p0.p0.i64(ptr align 1 %27, ptr align 1 %20, i64 %30, i1 false)
  %31 = load ptr, ptr %2, align 8, !tbaa !63
  %32 = getelementptr inbounds nuw i8, ptr %31, i64 %30
  store ptr %32, ptr %2, align 8, !tbaa !63
  %.not60 = icmp ugt i32 %spec.select, %21
  br i1 %.not60, label %55, label %33

33:                                               ; preds = %19
  %34 = sub nuw nsw i32 %22, %spec.select
  %35 = load ptr, ptr %4, align 8, !tbaa !66
  %36 = ptrtoint ptr %35 to i64
  %37 = ptrtoint ptr %32 to i64
  %38 = sub i64 %36, %37
  %39 = zext nneg i32 %34 to i64
  %..i = tail call i64 @llvm.smin.i64(i64 %38, i64 %39)
  %40 = getelementptr inbounds i8, ptr %32, i64 %..i
  store ptr %40, ptr %2, align 8, !tbaa !63
  br label %55

41:                                               ; preds = %bytestream2_get_byte.exit
  %.not68 = icmp eq i8 %16, -128
  br i1 %.not68, label %57, label %42, !llvm.loop !90

42:                                               ; preds = %41
  %43 = sub nsw i32 1, %17
  %44 = sub i32 %1, %.070
  %.62 = tail call i32 @llvm.umin.i32(i32 %43, i32 %44)
  %45 = zext i32 %.070 to i64
  %46 = getelementptr inbounds nuw i8, ptr %0, i64 %45
  %47 = ptrtoint ptr %15 to i64
  %48 = sub i64 %8, %47
  %49 = icmp slt i64 %48, 1
  br i1 %49, label %50, label %51

50:                                               ; preds = %42
  store ptr %6, ptr %2, align 8, !tbaa !63
  br label %bytestream2_get_byte.exit65

51:                                               ; preds = %42
  %52 = getelementptr inbounds nuw i8, ptr %7, i64 2
  store ptr %52, ptr %2, align 8, !tbaa !40
  %53 = load i8, ptr %15, align 1, !tbaa !30
  br label %bytestream2_get_byte.exit65

bytestream2_get_byte.exit65:                      ; preds = %50, %51
  %.0.i64 = phi i8 [ 0, %50 ], [ %53, %51 ]
  %54 = zext nneg i32 %.62 to i64
  tail call void @llvm.memset.p0.i64(ptr align 1 %46, i8 %.0.i64, i64 %54, i1 false)
  br label %55

55:                                               ; preds = %19, %33, %bytestream2_get_byte.exit65
  %.047 = phi i32 [ %spec.select, %33 ], [ %spec.select, %19 ], [ %.62, %bytestream2_get_byte.exit65 ]
  %56 = add i32 %.047, %.070
  br label %57

57:                                               ; preds = %41, %55
  %.1 = phi i32 [ %56, %55 ], [ %.070, %41 ]
  %58 = icmp ult i32 %.1, %1
  br i1 %58, label %5, label %.critedge63

.critedge:                                        ; preds = %5
  tail call void (ptr, i32, ptr, ...) @av_log(ptr noundef null, i32 noundef 24, ptr noundef nonnull @.str.17) #10
  %59 = zext i32 %.070 to i64
  %60 = getelementptr inbounds nuw i8, ptr %0, i64 %59
  %61 = sub nuw i32 %1, %.070
  %62 = zext i32 %61 to i64
  tail call void @llvm.memset.p0.i64(ptr align 1 %60, i8 0, i64 %62, i1 false)
  br label %.critedge63

.critedge63:                                      ; preds = %57, %3, %.critedge
  ret void
}